
main.elf：     文件格式 elf32-i386


Disassembly of section .text:

00000000 <bootmain>:
   0:	f3 0f 1e fb          	endbr32 
   4:	55                   	push   %ebp
   5:	89 e5                	mov    %esp,%ebp
   7:	83 ec 18             	sub    $0x18,%esp
   a:	e8 f7 00 00 00       	call   106 <__x86.get_pc_thunk.ax>
   f:	05 e1 01 00 00       	add    $0x1e1,%eax
  14:	e8 34 00 00 00       	call   4d <init_palette>
  19:	c7 45 f0 00 00 0a 00 	movl   $0xa0000,-0x10(%ebp)
  20:	c7 45 f4 00 00 00 00 	movl   $0x0,-0xc(%ebp)
  27:	eb 18                	jmp    41 <bootmain+0x41>
  29:	8b 45 f4             	mov    -0xc(%ebp),%eax
  2c:	89 c1                	mov    %eax,%ecx
  2e:	8b 55 f4             	mov    -0xc(%ebp),%edx
  31:	8b 45 f0             	mov    -0x10(%ebp),%eax
  34:	01 d0                	add    %edx,%eax
  36:	83 e1 0f             	and    $0xf,%ecx
  39:	89 ca                	mov    %ecx,%edx
  3b:	88 10                	mov    %dl,(%eax)
  3d:	83 45 f4 01          	addl   $0x1,-0xc(%ebp)
  41:	81 7d f4 ff ff 00 00 	cmpl   $0xffff,-0xc(%ebp)
  48:	7e df                	jle    29 <bootmain+0x29>
  4a:	f4                   	hlt    
  4b:	eb fd                	jmp    4a <bootmain+0x4a>

0000004d <init_palette>:
  4d:	f3 0f 1e fb          	endbr32 
  51:	55                   	push   %ebp
  52:	89 e5                	mov    %esp,%ebp
  54:	83 ec 08             	sub    $0x8,%esp
  57:	e8 aa 00 00 00       	call   106 <__x86.get_pc_thunk.ax>
  5c:	05 94 01 00 00       	add    $0x194,%eax
  61:	83 ec 04             	sub    $0x4,%esp
  64:	8d 80 d0 ff ff ff    	lea    -0x30(%eax),%eax
  6a:	50                   	push   %eax
  6b:	6a 0f                	push   $0xf
  6d:	6a 00                	push   $0x0
  6f:	e8 06 00 00 00       	call   7a <set_palette>
  74:	83 c4 10             	add    $0x10,%esp
  77:	90                   	nop
  78:	c9                   	leave  
  79:	c3                   	ret    

0000007a <set_palette>:
  7a:	f3 0f 1e fb          	endbr32 
  7e:	55                   	push   %ebp
  7f:	89 e5                	mov    %esp,%ebp
  81:	83 ec 10             	sub    $0x10,%esp
  84:	e8 7d 00 00 00       	call   106 <__x86.get_pc_thunk.ax>
  89:	05 67 01 00 00       	add    $0x167,%eax
  8e:	9c                   	pushf  
  8f:	58                   	pop    %eax
  90:	89 45 f4             	mov    %eax,-0xc(%ebp)
  93:	8b 45 f4             	mov    -0xc(%ebp),%eax
  96:	89 45 f8             	mov    %eax,-0x8(%ebp)
  99:	fa                   	cli    
  9a:	8b 45 08             	mov    0x8(%ebp),%eax
  9d:	ba c8 03 00 00       	mov    $0x3c8,%edx
  a2:	ee                   	out    %al,(%dx)
  a3:	8b 45 08             	mov    0x8(%ebp),%eax
  a6:	89 45 fc             	mov    %eax,-0x4(%ebp)
  a9:	eb 44                	jmp    ef <set_palette+0x75>
  ab:	8b 45 10             	mov    0x10(%ebp),%eax
  ae:	0f b6 00             	movzbl (%eax),%eax
  b1:	c0 e8 02             	shr    $0x2,%al
  b4:	0f b6 c0             	movzbl %al,%eax
  b7:	ba c9 03 00 00       	mov    $0x3c9,%edx
  bc:	ee                   	out    %al,(%dx)
  bd:	8b 45 10             	mov    0x10(%ebp),%eax
  c0:	83 c0 01             	add    $0x1,%eax
  c3:	0f b6 00             	movzbl (%eax),%eax
  c6:	c0 e8 02             	shr    $0x2,%al
  c9:	0f b6 c0             	movzbl %al,%eax
  cc:	ba c9 03 00 00       	mov    $0x3c9,%edx
  d1:	ee                   	out    %al,(%dx)
  d2:	8b 45 10             	mov    0x10(%ebp),%eax
  d5:	83 c0 02             	add    $0x2,%eax
  d8:	0f b6 00             	movzbl (%eax),%eax
  db:	c0 e8 02             	shr    $0x2,%al
  de:	0f b6 c0             	movzbl %al,%eax
  e1:	ba c9 03 00 00       	mov    $0x3c9,%edx
  e6:	ee                   	out    %al,(%dx)
  e7:	83 45 10 03          	addl   $0x3,0x10(%ebp)
  eb:	83 45 fc 01          	addl   $0x1,-0x4(%ebp)
  ef:	8b 45 fc             	mov    -0x4(%ebp),%eax
  f2:	3b 45 0c             	cmp    0xc(%ebp),%eax
  f5:	7e b4                	jle    ab <set_palette+0x31>
  f7:	8b 45 f8             	mov    -0x8(%ebp),%eax
  fa:	89 45 f0             	mov    %eax,-0x10(%ebp)
  fd:	8b 45 f0             	mov    -0x10(%ebp),%eax
 100:	50                   	push   %eax
 101:	9d                   	popf   
 102:	90                   	nop
 103:	90                   	nop
 104:	c9                   	leave  
 105:	c3                   	ret    

Disassembly of section .text.__x86.get_pc_thunk.ax:

00000106 <__x86.get_pc_thunk.ax>:
 106:	8b 04 24             	mov    (%esp),%eax
 109:	c3                   	ret    
